; Function Attrs: mustprogress nounwind uwtable
define noundef ptr @_ZNK8WasmEdge6Plugin6Plugin13findComponentESt17basic_string_viewIcSt11char_traitsIcEE(ptr noundef nonnull align 8 dereferenceable(224) %0, i64 %1, ptr %2) local_unnamed_addr #0 align 2 personality ptr @__gxx_personality_v0 {
  %4 = alloca %"class.std::basic_string_view", align 8
  store i64 %1, ptr %4, align 8
  %5 = getelementptr inbounds i8, ptr %4, i64 8
  store ptr %2, ptr %5, align 8
  %6 = getelementptr inbounds i8, ptr %0, i64 168
  %7 = invoke ptr @_ZNKSt10_HashtableISt17basic_string_viewIcSt11char_traitsIcEESt4pairIKS3_mESaIS6_ENSt8__detail10_Select1stESt8equal_toIS3_ESt4hashIS3_ENS8_18_Mod_range_hashingENS8_20_Default_ranged_hashENS8_20_Prime_rehash_policyENS8_17_Hashtable_traitsILb1ELb0ELb1EEEE4findERS5_(ptr noundef nonnull align 8 dereferenceable(56) %6, ptr noundef nonnull align 8 dereferenceable(16) %4)
          to label %_ZNKSt13unordered_mapISt17basic_string_viewIcSt11char_traitsIcEEmSt4hashIS3_ESt8equal_toIS3_ESaISt4pairIKS3_mEEE4findERS9_.exit unwind label %15

_ZNKSt13unordered_mapISt17basic_string_viewIcSt11char_traitsIcEEmSt4hashIS3_ESt8equal_toIS3_ESaISt4pairIKS3_mEEE4findERS9_.exit: ; preds = %3
  %.not = icmp eq ptr %7, null
  br i1 %.not, label %14, label %8

8:                                                ; preds = %_ZNKSt13unordered_mapISt17basic_string_viewIcSt11char_traitsIcEEmSt4hashIS3_ESt8equal_toIS3_ESaISt4pairIKS3_mEEE4findERS9_.exit
  %9 = getelementptr inbounds i8, ptr %0, i64 88
  %10 = getelementptr inbounds i8, ptr %7, i64 24
  %11 = load i64, ptr %10, align 8
  %12 = load ptr, ptr %9, align 8
  %13 = getelementptr inbounds %"class.WasmEdge::Plugin::PluginComponent", ptr %12, i64 %11
  br label %14

14:                                               ; preds = %_ZNKSt13unordered_mapISt17basic_string_viewIcSt11char_traitsIcEEmSt4hashIS3_ESt8equal_toIS3_ESaISt4pairIKS3_mEEE4findERS9_.exit, %8
  %.0 = phi ptr [ %13, %8 ], [ null, %_ZNKSt13unordered_mapISt17basic_string_viewIcSt11char_traitsIcEEmSt4hashIS3_ESt8equal_toIS3_ESaISt4pairIKS3_mEEE4findERS9_.exit ]
  ret ptr %.0

15:                                               ; preds = %3
  %16 = landingpad { ptr, i32 }
          catch ptr null
  %17 = extractvalue { ptr, i32 } %16, 0
  call void @__clang_call_terminate(ptr %17) #26
  unreachable
}